target datalayout = "e-m:e-p270:32:32-p271:32:32-p272:64:64-i64:64-i128:128-f80:128-n8:16:32:64-S128"
target triple = "x86_64-pc-linux-gnu"

%struct.rb_random_mt_t = type { %struct.rb_random_struct, %struct.MT }
%struct.rb_random_struct = type { i64 }
%struct.MT = type { [624 x i32], ptr, i32 }

@default_rand_key = internal global ptr null, align 8

; Function Attrs: nounwind sspstrong uwtable
define internal ptr @default_rand() #0 {
  %1 = alloca ptr, align 8
  call void @llvm.lifetime.start.p0(i64 8, ptr %1) #24
  %2 = load ptr, ptr @default_rand_key, align 8, !tbaa !7
  %3 = call ptr @rb_ractor_local_storage_ptr(ptr noundef %2)
  store ptr %3, ptr %1, align 8, !tbaa !20
  %4 = icmp eq ptr %3, null
  br i1 %4, label %5, label %9

5:                                                ; preds = %0
  %6 = call noalias nonnull ptr @ruby_xcalloc(i64 noundef 1, i64 noundef 2520) #29
  store ptr %6, ptr %1, align 8, !tbaa !20
  %7 = load ptr, ptr @default_rand_key, align 8, !tbaa !7
  %8 = load ptr, ptr %1, align 8, !tbaa !20
  call void @rb_ractor_local_storage_ptr_set(ptr noundef %7, ptr noundef %8)
  br label %9

9:                                                ; preds = %5, %0
  %10 = load ptr, ptr %1, align 8, !tbaa !20
  call void @llvm.lifetime.end.p0(i64 8, ptr %1) #24
  ret ptr %10
}

; Function Attrs: nounwind sspstrong uwtable
define dso_local void @rb_reset_random_seed() #0 {
  %1 = alloca ptr, align 8
  call void @llvm.lifetime.start.p0(i64 8, ptr %1) #24
  %2 = call ptr @default_rand()
  store ptr %2, ptr %1, align 8, !tbaa !20
  %3 = load ptr, ptr %1, align 8, !tbaa !20
  %4 = getelementptr inbounds nuw %struct.rb_random_mt_t, ptr %3, i32 0, i32 1
  %5 = getelementptr inbounds nuw %struct.MT, ptr %4, i32 0, i32 1
  store ptr null, ptr %5, align 8, !tbaa !70
  %6 = load ptr, ptr %1, align 8, !tbaa !20
  %7 = getelementptr inbounds nuw %struct.rb_random_mt_t, ptr %6, i32 0, i32 0
  %8 = getelementptr inbounds nuw %struct.rb_random_struct, ptr %7, i32 0, i32 0
  store i64 1, ptr %8, align 8, !tbaa !72
  call void @llvm.lifetime.end.p0(i64 8, ptr %1) #24
  ret void
}