; Function Attrs: nounwind sspstrong uwtable
define dso_local void @rb_reset_random_seed() local_unnamed_addr #0 {
  %1 = load ptr, ptr @default_rand_key, align 8, !tbaa !7
  %2 = tail call ptr @rb_ractor_local_storage_ptr(ptr noundef %1) #23
  %3 = icmp eq ptr %2, null
  br i1 %3, label %4, label %default_rand.exit

4:                                                ; preds = %0
  %5 = tail call noalias nonnull dereferenceable(2520) ptr @ruby_xcalloc(i64 noundef 1, i64 noundef 2520) #24
  %6 = load ptr, ptr @default_rand_key, align 8, !tbaa !7
  tail call void @rb_ractor_local_storage_ptr_set(ptr noundef %6, ptr noundef nonnull %5) #23
  br label %default_rand.exit

default_rand.exit:                                ; preds = %0, %4
  %.0.i = phi ptr [ %5, %4 ], [ %2, %0 ]
  %7 = getelementptr inbounds nuw i8, ptr %.0.i, i64 2504
  store ptr null, ptr %7, align 8, !tbaa !12
  store i64 1, ptr %.0.i, align 8, !tbaa !19
  ret void
}